target datalayout = "e-m:e-p270:32:32-p271:32:32-p272:64:64-i64:64-i128:128-f80:128-n8:16:32:64-S128"
target triple = "x86_64-pc-linux-gnu"

; Function Attrs: null_pointer_is_valid sspstrong uwtable
define internal zeroext i1 @find_ipprim_data_offset(ptr noundef %0, ptr noundef %1, i8 noundef zeroext %2, ptr noundef %3, ptr noundef %4, ptr noundef %5, ptr noundef %6, ptr noundef %7, ptr noundef %8, ptr noundef %9, ptr noundef %10) #0 {
  %12 = alloca i1, align 1
  %13 = alloca ptr, align 8
  %14 = alloca ptr, align 8
  %15 = alloca i8, align 1
  %16 = alloca ptr, align 8
  %17 = alloca ptr, align 8
  %18 = alloca ptr, align 8
  %19 = alloca ptr, align 8
  %20 = alloca ptr, align 8
  %21 = alloca ptr, align 8
  %22 = alloca ptr, align 8
  %23 = alloca ptr, align 8
  %24 = alloca i8, align 1
  %25 = alloca i32, align 4
  %26 = alloca i8, align 1
  %27 = alloca i32, align 4
  store ptr %0, ptr %13, align 8
  store ptr %1, ptr %14, align 8
  store i8 %2, ptr %15, align 1
  store ptr %3, ptr %16, align 8
  store ptr %4, ptr %17, align 8
  store ptr %5, ptr %18, align 8
  store ptr %6, ptr %19, align 8
  store ptr %7, ptr %20, align 8
  store ptr %8, ptr %21, align 8
  store ptr %9, ptr %22, align 8
  store ptr %10, ptr %23, align 8
  call void @llvm.lifetime.start.p0(i64 1, ptr %24) #12
  call void @llvm.lifetime.start.p0(i64 4, ptr %25) #12
  %28 = load ptr, ptr %14, align 8
  %29 = load i32, ptr %28, align 4
  store i32 %29, ptr %25, align 4
  call void @llvm.lifetime.start.p0(i64 1, ptr %26) #12
  %30 = load ptr, ptr %13, align 8
  %31 = load i32, ptr %25, align 4
  %32 = add i32 %31, 1
  store i32 %32, ptr %25, align 4
  %33 = call zeroext i8 @tvb_get_uint8(ptr noundef %30, i32 noundef %31)
  store i8 %33, ptr %26, align 1
  %34 = load i8, ptr %26, align 1
  %35 = zext i8 %34 to i32
  switch i32 %35, label %40 [
    i32 35, label %36
    i32 36, label %36
    i32 69, label %38
    i32 70, label %38
  ]

36:                                               ; preds = %11, %11
  %37 = load ptr, ptr %22, align 8
  store i32 3, ptr %37, align 4
  br label %41

38:                                               ; preds = %11, %11
  %39 = load ptr, ptr %22, align 8
  store i32 2, ptr %39, align 4
  br label %41

40:                                               ; preds = %11
  store i1 false, ptr %12, align 1
  store i32 1, ptr %27, align 4
  br label %198

41:                                               ; preds = %38, %36
  br label %42

42:                                               ; preds = %196, %41
  %43 = load ptr, ptr %13, align 8
  %44 = load i32, ptr %25, align 4
  %45 = call i32 @tvb_reported_length_remaining(ptr noundef %43, i32 noundef %44)
  %46 = icmp sgt i32 %45, 2
  br i1 %46, label %47, label %197

47:                                               ; preds = %42
  %48 = load ptr, ptr %13, align 8
  %49 = load i32, ptr %25, align 4
  %50 = add i32 %49, 1
  store i32 %50, ptr %25, align 4
  %51 = call zeroext i8 @tvb_get_uint8(ptr noundef %48, i32 noundef %49)
  store i8 %51, ptr %26, align 1
  %52 = load i8, ptr %26, align 1
  %53 = zext i8 %52 to i32
  %54 = icmp eq i32 %53, 52
  br i1 %54, label %55, label %59

55:                                               ; preds = %47
  %56 = load ptr, ptr %22, align 8
  %57 = load i32, ptr %56, align 4
  %58 = icmp eq i32 %57, 3
  br i1 %58, label %67, label %59

59:                                               ; preds = %55, %47
  %60 = load i8, ptr %26, align 1
  %61 = zext i8 %60 to i32
  %62 = icmp eq i32 %61, 72
  br i1 %62, label %63, label %70

63:                                               ; preds = %59
  %64 = load ptr, ptr %22, align 8
  %65 = load i32, ptr %64, align 4
  %66 = icmp eq i32 %65, 2
  br i1 %66, label %67, label %70

67:                                               ; preds = %63, %55
  %68 = load i32, ptr %25, align 4
  %69 = load ptr, ptr %14, align 8
  store i32 %68, ptr %69, align 4
  store i1 true, ptr %12, align 1
  store i32 1, ptr %27, align 4
  br label %198

70:                                               ; preds = %63, %59
  %71 = load ptr, ptr %13, align 8
  %72 = load i32, ptr %25, align 4
  %73 = add i32 %72, 1
  store i32 %73, ptr %25, align 4
  %74 = call zeroext i8 @tvb_get_uint8(ptr noundef %71, i32 noundef %72)
  store i8 %74, ptr %24, align 1
  %75 = load i8, ptr %26, align 1
  %76 = zext i8 %75 to i32
  %77 = icmp eq i32 %76, 49
  br i1 %77, label %78, label %129

78:                                               ; preds = %70
  %79 = load i8, ptr %24, align 1
  %80 = zext i8 %79 to i32
  %81 = icmp sge i32 %80, 4
  br i1 %81, label %82, label %129

82:                                               ; preds = %78
  %83 = load i8, ptr %15, align 1
  %84 = zext i8 %83 to i32
  %85 = icmp eq i32 %84, 0
  br i1 %85, label %86, label %95

86:                                               ; preds = %82
  %87 = load i32, ptr %25, align 4
  %88 = load ptr, ptr %18, align 8
  store i32 %87, ptr %88, align 4
  %89 = load i8, ptr %24, align 1
  %90 = zext i8 %89 to i32
  %91 = sdiv i32 %90, 4
  %92 = mul i32 %91, 4
  %93 = trunc i32 %92 to i8
  %94 = load ptr, ptr %19, align 8
  store i8 %93, ptr %94, align 1
  br label %104

95:                                               ; preds = %82
  %96 = load i32, ptr %25, align 4
  %97 = load ptr, ptr %16, align 8
  store i32 %96, ptr %97, align 4
  %98 = load i8, ptr %24, align 1
  %99 = zext i8 %98 to i32
  %100 = sdiv i32 %99, 4
  %101 = mul i32 %100, 4
  %102 = trunc i32 %101 to i8
  %103 = load ptr, ptr %17, align 8
  store i8 %102, ptr %103, align 1
  br label %104

104:                                              ; preds = %95, %86
  %105 = load i8, ptr %24, align 1
  %106 = zext i8 %105 to i32
  %107 = srem i32 %106, 4
  %108 = icmp eq i32 %107, 2
  br i1 %108, label %109, label %128

109:                                              ; preds = %104
  %110 = load i8, ptr %15, align 1
  %111 = zext i8 %110 to i32
  %112 = icmp eq i32 %111, 0
  br i1 %112, label %113, label %120

113:                                              ; preds = %109
  %114 = load i32, ptr %25, align 4
  %115 = load ptr, ptr %19, align 8
  %116 = load i8, ptr %115, align 1
  %117 = zext i8 %116 to i32
  %118 = add i32 %114, %117
  %119 = load ptr, ptr %21, align 8
  store i32 %118, ptr %119, align 4
  br label %127

120:                                              ; preds = %109
  %121 = load i32, ptr %25, align 4
  %122 = load ptr, ptr %17, align 8
  %123 = load i8, ptr %122, align 1
  %124 = zext i8 %123 to i32
  %125 = add i32 %121, %124
  %126 = load ptr, ptr %20, align 8
  store i32 %125, ptr %126, align 4
  br label %127

127:                                              ; preds = %120, %113
  br label %128

128:                                              ; preds = %127, %104
  br label %191

129:                                              ; preds = %78, %70
  %130 = load i8, ptr %26, align 1
  %131 = zext i8 %130 to i32
  %132 = icmp eq i32 %131, 50
  br i1 %132, label %133, label %157

133:                                              ; preds = %129
  %134 = load i8, ptr %24, align 1
  %135 = zext i8 %134 to i32
  %136 = icmp eq i32 %135, 4
  br i1 %136, label %141, label %137

137:                                              ; preds = %133
  %138 = load i8, ptr %24, align 1
  %139 = zext i8 %138 to i32
  %140 = icmp eq i32 %139, 16
  br i1 %140, label %141, label %156

141:                                              ; preds = %137, %133
  %142 = load i8, ptr %15, align 1
  %143 = zext i8 %142 to i32
  %144 = icmp eq i32 %143, 0
  br i1 %144, label %145, label %150

145:                                              ; preds = %141
  %146 = load i32, ptr %25, align 4
  %147 = load ptr, ptr %16, align 8
  store i32 %146, ptr %147, align 4
  %148 = load i8, ptr %24, align 1
  %149 = load ptr, ptr %17, align 8
  store i8 %148, ptr %149, align 1
  br label %155

150:                                              ; preds = %141
  %151 = load i32, ptr %25, align 4
  %152 = load ptr, ptr %18, align 8
  store i32 %151, ptr %152, align 4
  %153 = load i8, ptr %24, align 1
  %154 = load ptr, ptr %19, align 8
  store i8 %153, ptr %154, align 1
  br label %155

155:                                              ; preds = %150, %145
  br label %156

156:                                              ; preds = %155, %137
  br label %190

157:                                              ; preds = %129
  %158 = load i8, ptr %26, align 1
  %159 = zext i8 %158 to i32
  %160 = icmp eq i32 %159, 51
  br i1 %160, label %161, label %176

161:                                              ; preds = %157
  %162 = load i8, ptr %24, align 1
  %163 = zext i8 %162 to i32
  %164 = icmp eq i32 %163, 2
  br i1 %164, label %165, label %176

165:                                              ; preds = %161
  %166 = load i8, ptr %15, align 1
  %167 = zext i8 %166 to i32
  %168 = icmp eq i32 %167, 0
  br i1 %168, label %169, label %172

169:                                              ; preds = %165
  %170 = load i32, ptr %25, align 4
  %171 = load ptr, ptr %20, align 8
  store i32 %170, ptr %171, align 4
  br label %175

172:                                              ; preds = %165
  %173 = load i32, ptr %25, align 4
  %174 = load ptr, ptr %21, align 8
  store i32 %173, ptr %174, align 4
  br label %175

175:                                              ; preds = %172, %169
  br label %189

176:                                              ; preds = %161, %157
  %177 = load i8, ptr %26, align 1
  %178 = zext i8 %177 to i32
  %179 = icmp eq i32 %178, 54
  br i1 %179, label %180, label %188

180:                                              ; preds = %176
  %181 = load i8, ptr %24, align 1
  %182 = zext i8 %181 to i32
  %183 = icmp eq i32 %182, 2
  br i1 %183, label %184, label %188

184:                                              ; preds = %180
  %185 = load i32, ptr %25, align 4
  %186 = trunc i32 %185 to i16
  %187 = load ptr, ptr %23, align 8
  store i16 %186, ptr %187, align 2
  br label %188

188:                                              ; preds = %184, %180, %176
  br label %189

189:                                              ; preds = %188, %175
  br label %190

190:                                              ; preds = %189, %156
  br label %191

191:                                              ; preds = %190, %128
  %192 = load i8, ptr %24, align 1
  %193 = zext i8 %192 to i32
  %194 = load i32, ptr %25, align 4
  %195 = add i32 %194, %193
  store i32 %195, ptr %25, align 4
  br label %196

196:                                              ; preds = %191
  br label %42, !llvm.loop !30

197:                                              ; preds = %42
  store i1 false, ptr %12, align 1
  store i32 1, ptr %27, align 4
  br label %198

198:                                              ; preds = %197, %67, %40
  call void @llvm.lifetime.end.p0(i64 1, ptr %26) #12
  call void @llvm.lifetime.end.p0(i64 4, ptr %25) #12
  call void @llvm.lifetime.end.p0(i64 1, ptr %24) #12
  %199 = load i1, ptr %12, align 1
  ret i1 %199
}