; Function Attrs: null_pointer_is_valid sspstrong uwtable
define internal fastcc noundef zeroext i1 @find_ipprim_data_offset(ptr noundef %0, ptr noundef captures(none) %1, i8 noundef zeroext %2, ptr noundef writeonly captures(none) %3, ptr noundef writeonly captures(none) %4, ptr noundef writeonly captures(none) %5, ptr noundef writeonly captures(none) %6, ptr noundef writeonly captures(none) %7, ptr noundef writeonly captures(none) %8, ptr noundef captures(none) %9, ptr noundef writeonly captures(none) %10) unnamed_addr #0 {
  %12 = load i32, ptr %1, align 4
  %13 = add i32 %12, 1
  %14 = tail call zeroext i8 @tvb_get_uint8(ptr noundef %0, i32 noundef %12)
  switch i8 %14, label %.loopexit [
    i8 35, label %16
    i8 36, label %16
    i8 69, label %15
    i8 70, label %15
  ]

15:                                               ; preds = %11, %11
  br label %16

16:                                               ; preds = %11, %11, %15
  %storemerge = phi i32 [ 2, %15 ], [ 3, %11 ], [ 3, %11 ]
  store i32 %storemerge, ptr %9, align 4
  %17 = tail call i32 @tvb_reported_length_remaining(ptr noundef %0, i32 noundef %13)
  %18 = icmp sgt i32 %17, 2
  br i1 %18, label %.lr.ph, label %.loopexit

.lr.ph:                                           ; preds = %16
  %19 = icmp eq i8 %2, 0
  br label %20

20:                                               ; preds = %.lr.ph, %62
  %.077 = phi i32 [ %13, %.lr.ph ], [ %63, %62 ]
  %21 = add i32 %.077, 1
  %22 = tail call zeroext i8 @tvb_get_uint8(ptr noundef %0, i32 noundef %.077)
  switch i8 %22, label %30 [
    i8 52, label %23
    i8 72, label %26
  ]

23:                                               ; preds = %20
  %24 = load i32, ptr %9, align 4
  %25 = icmp eq i32 %24, 3
  br i1 %25, label %29, label %30

26:                                               ; preds = %20
  %27 = load i32, ptr %9, align 4
  %28 = icmp eq i32 %27, 2
  br i1 %28, label %29, label %30

29:                                               ; preds = %26, %23
  store i32 %21, ptr %1, align 4
  br label %.loopexit

30:                                               ; preds = %23, %20, %26
  %31 = add i32 %.077, 2
  %32 = tail call zeroext i8 @tvb_get_uint8(ptr noundef %0, i32 noundef %21)
  %33 = icmp eq i8 %22, 49
  %34 = zext i8 %32 to i32
  %35 = icmp ugt i8 %32, 3
  %or.cond = select i1 %33, i1 %35, i1 false
  br i1 %or.cond, label %36, label %46

36:                                               ; preds = %30
  %37 = and i8 %32, -4
  %38 = and i32 %34, 3
  %39 = icmp eq i32 %38, 2
  br i1 %19, label %40, label %.thread

40:                                               ; preds = %36
  store i32 %31, ptr %5, align 4
  store i8 %37, ptr %6, align 1
  br i1 %39, label %41, label %62

.thread:                                          ; preds = %36
  store i32 %31, ptr %3, align 4
  store i8 %37, ptr %4, align 1
  br i1 %39, label %.thread76, label %62

41:                                               ; preds = %40
  %42 = zext i8 %37 to i32
  %43 = add i32 %31, %42
  store i32 %43, ptr %8, align 4
  br label %62

.thread76:                                        ; preds = %.thread
  %44 = zext i8 %37 to i32
  %45 = add i32 %31, %44
  store i32 %45, ptr %7, align 4
  br label %62

46:                                               ; preds = %30
  %47 = icmp eq i8 %22, 50
  br i1 %47, label %48, label %52

48:                                               ; preds = %46
  switch i8 %32, label %62 [
    i8 16, label %49
    i8 4, label %49
  ]

49:                                               ; preds = %48, %48
  br i1 %19, label %50, label %51

50:                                               ; preds = %49
  store i32 %31, ptr %3, align 4
  store i8 %32, ptr %4, align 1
  br label %62

51:                                               ; preds = %49
  store i32 %31, ptr %5, align 4
  store i8 %32, ptr %6, align 1
  br label %62

52:                                               ; preds = %46
  %53 = icmp eq i8 %22, 51
  %54 = icmp eq i8 %32, 2
  %or.cond8 = select i1 %53, i1 %54, i1 false
  br i1 %or.cond8, label %55, label %58

55:                                               ; preds = %52
  br i1 %19, label %56, label %57

56:                                               ; preds = %55
  store i32 %31, ptr %7, align 4
  br label %62

57:                                               ; preds = %55
  store i32 %31, ptr %8, align 4
  br label %62

58:                                               ; preds = %52
  %59 = icmp eq i8 %22, 54
  %or.cond11 = select i1 %59, i1 %54, i1 false
  br i1 %or.cond11, label %60, label %62

60:                                               ; preds = %58
  %61 = trunc i32 %31 to i16
  store i16 %61, ptr %10, align 2
  br label %62

62:                                               ; preds = %.thread, %48, %50, %51, %58, %60, %56, %57, %40, %.thread76, %41
  %63 = add i32 %31, %34
  %64 = tail call i32 @tvb_reported_length_remaining(ptr noundef %0, i32 noundef %63)
  %65 = icmp sgt i32 %64, 2
  br i1 %65, label %20, label %.loopexit, !llvm.loop !30

.loopexit:                                        ; preds = %62, %16, %11, %29
  %.073 = phi i1 [ true, %29 ], [ false, %11 ], [ false, %16 ], [ false, %62 ]
  ret i1 %.073
}